target datalayout = "e-m:e-p270:32:32-p271:32:32-p272:64:64-i64:64-i128:128-f80:128-n8:16:32:64-S128"
target triple = "x86_64-pc-linux-gnu"

%struct.pmix_object_t = type { %union.pthread_mutex_t, ptr, i32, %struct.pmix_tma }
%union.pthread_mutex_t = type { %struct.__pthread_mutex_s }
%struct.__pthread_mutex_s = type { i32, i32, i32, i32, i32, i16, i16, %struct.__pthread_internal_list }
%struct.__pthread_internal_list = type { ptr, ptr }
%struct.pmix_tma = type { ptr, ptr, ptr, ptr, ptr, ptr, ptr, ptr }
%struct.prte_pmix_lock_t = type { %struct.pmix_mutex_t, %union.pthread_cond_t, i8, i32, ptr }
%struct.pmix_mutex_t = type { %struct.pmix_object_t, %union.pthread_mutex_t }
%union.pthread_cond_t = type { %struct.__pthread_cond_s }
%struct.__pthread_cond_s = type { %union.__atomic_wide_counter, %union.__atomic_wide_counter, [2 x i32], [2 x i32], i32, i32, [2 x i32] }
%union.__atomic_wide_counter = type { i64 }

; Function Attrs: inlinehint nounwind uwtable
define internal void @pmix_mutex_unlock(ptr noundef %0) #3 {
  %2 = alloca ptr, align 8
  store ptr %0, ptr %2, align 8, !tbaa !206
  %3 = load ptr, ptr %2, align 8, !tbaa !206
  %4 = getelementptr inbounds nuw %struct.pmix_mutex_t, ptr %3, i32 0, i32 1
  %5 = call i32 @pthread_mutex_unlock(ptr noundef %4) #12
  ret void
}

; Function Attrs: inlinehint nounwind uwtable
define internal void @pmix_atomic_wmb() #3 {
  fence release
  ret void
}

; Function Attrs: inlinehint nounwind uwtable
define internal void @pmix_mutex_lock(ptr noundef %0) #3 {
  %2 = alloca ptr, align 8
  store ptr %0, ptr %2, align 8, !tbaa !206
  %3 = load ptr, ptr %2, align 8, !tbaa !206
  %4 = getelementptr inbounds nuw %struct.pmix_mutex_t, ptr %3, i32 0, i32 1
  %5 = call i32 @pthread_mutex_lock(ptr noundef %4) #12
  ret void
}

; Function Attrs: inlinehint nounwind uwtable
define internal void @pmix_atomic_rmb() #3 {
  fence acquire
  ret void
}

; Function Attrs: nounwind uwtable
define internal void @spcbfunc(i32 noundef %0, ptr noundef %1, ptr noundef %2) #0 {
  %4 = alloca i32, align 4
  %5 = alloca ptr, align 8
  %6 = alloca ptr, align 8
  %7 = alloca ptr, align 8
  store i32 %0, ptr %4, align 4, !tbaa !4
  store ptr %1, ptr %5, align 8, !tbaa !22
  store ptr %2, ptr %6, align 8, !tbaa !30
  call void @llvm.lifetime.start.p0(i64 8, ptr %7) #12
  %8 = load ptr, ptr %6, align 8, !tbaa !30
  store ptr %8, ptr %7, align 8, !tbaa !30
  call void @pmix_atomic_rmb()
  %9 = load i32, ptr %4, align 4, !tbaa !4
  %10 = load ptr, ptr %7, align 8, !tbaa !30
  %11 = getelementptr inbounds nuw %struct.prte_pmix_lock_t, ptr %10, i32 0, i32 3
  store i32 %9, ptr %11, align 4, !tbaa !141
  %12 = load i32, ptr %4, align 4, !tbaa !4
  %13 = icmp eq i32 0, %12
  br i1 %13, label %14, label %19

14:                                               ; preds = %3
  %15 = load ptr, ptr %5, align 8, !tbaa !22
  %16 = call noalias ptr @strdup(ptr noundef %15) #12
  %17 = load ptr, ptr %7, align 8, !tbaa !30
  %18 = getelementptr inbounds nuw %struct.prte_pmix_lock_t, ptr %17, i32 0, i32 4
  store ptr %16, ptr %18, align 8, !tbaa !142
  br label %19

19:                                               ; preds = %14, %3
  br label %20

20:                                               ; preds = %19
  %21 = load ptr, ptr %7, align 8, !tbaa !30
  %22 = getelementptr inbounds nuw %struct.prte_pmix_lock_t, ptr %21, i32 0, i32 0
  call void @pmix_mutex_lock(ptr noundef %22)
  %23 = load ptr, ptr %7, align 8, !tbaa !30
  %24 = getelementptr inbounds nuw %struct.prte_pmix_lock_t, ptr %23, i32 0, i32 2
  store volatile i8 0, ptr %24, align 8, !tbaa !140
  call void @pmix_atomic_wmb()
  %25 = load ptr, ptr %7, align 8, !tbaa !30
  %26 = getelementptr inbounds nuw %struct.prte_pmix_lock_t, ptr %25, i32 0, i32 1
  %27 = call i32 @pthread_cond_broadcast(ptr noundef %26) #12
  %28 = load ptr, ptr %7, align 8, !tbaa !30
  %29 = getelementptr inbounds nuw %struct.prte_pmix_lock_t, ptr %28, i32 0, i32 0
  call void @pmix_mutex_unlock(ptr noundef %29)
  br label %30

30:                                               ; preds = %20
  br label %31

31:                                               ; preds = %30
  call void @llvm.lifetime.end.p0(i64 8, ptr %7) #12
  ret void
}