; Function Attrs: nounwind uwtable
define internal void @spcbfunc(i32 noundef %0, ptr noundef readonly captures(none) %1, ptr noundef initializes((212, 216)) %2) #0 {
  fence acquire
  %4 = getelementptr inbounds nuw i8, ptr %2, i64 212
  store i32 %0, ptr %4, align 4, !tbaa !140
  %5 = icmp eq i32 %0, 0
  br i1 %5, label %6, label %9

6:                                                ; preds = %3
  %7 = tail call noalias ptr @strdup(ptr noundef %1) #23
  %8 = getelementptr inbounds nuw i8, ptr %2, i64 216
  store ptr %7, ptr %8, align 8, !tbaa !141
  br label %9

9:                                                ; preds = %3, %6
  %10 = getelementptr inbounds nuw i8, ptr %2, i64 120
  %11 = tail call i32 @pthread_mutex_lock(ptr noundef nonnull %10) #23
  %12 = getelementptr inbounds nuw i8, ptr %2, i64 208
  store volatile i8 0, ptr %12, align 8, !tbaa !139
  fence release
  %13 = getelementptr inbounds nuw i8, ptr %2, i64 160
  %14 = tail call i32 @pthread_cond_broadcast(ptr noundef nonnull %13) #23
  %15 = tail call i32 @pthread_mutex_unlock(ptr noundef nonnull %10) #23
  ret void
}